; Function Attrs: mustprogress uwtable
define hidden void @_ZN3sls10smt_plugin15export_from_slsEv(ptr noundef nonnull align 8 dereferenceable(3024) %0) local_unnamed_addr #3 align 2 {
  %2 = load ptr, ptr %0, align 8, !tbaa !3
  %3 = getelementptr inbounds nuw i8, ptr %2, i64 160
  %4 = load ptr, ptr %3, align 8
  %5 = tail call noundef nonnull align 8 dereferenceable(24) ptr %4(ptr noundef nonnull align 8 dereferenceable(3024) %0)
  %6 = load i32, ptr %5, align 8, !tbaa !275
  %7 = getelementptr inbounds nuw i8, ptr %0, i64 2892
  %8 = load i32, ptr %7, align 4, !tbaa !147
  %9 = icmp ugt i32 %6, %8
  br i1 %9, label %16, label %10

10:                                               ; preds = %1
  %11 = load ptr, ptr %0, align 8, !tbaa !3
  %12 = getelementptr inbounds nuw i8, ptr %11, i64 160
  %13 = load ptr, ptr %12, align 8
  %14 = tail call noundef nonnull align 8 dereferenceable(24) ptr %13(ptr noundef nonnull align 8 dereferenceable(3024) %0)
  %15 = load i32, ptr %14, align 8, !tbaa !275
  store i32 %15, ptr %7, align 4, !tbaa !147
  tail call void @_ZN3sls10smt_plugin21export_phase_from_slsEv(ptr noundef nonnull align 8 dereferenceable(3024) %0)
  tail call void @_ZN3sls10smt_plugin22export_values_from_slsEv(ptr noundef nonnull align 8 dereferenceable(3024) %0)
  br label %16

16:                                               ; preds = %1, %10
  ret void
}